; Function Attrs: nounwind uwtable
define nonnull ptr @l_Lean_Meta_Grind_CasesTypes_isSplit___boxed(ptr noundef %0, ptr noundef %1) local_unnamed_addr #1 {
  %3 = tail call i64 @l_Lean_Name_hash___override(ptr noundef %1) #6
  %4 = tail call ptr @l_Lean_PersistentHashMap_findAux___at_Lean_Meta_Grind_CasesTypes_find_x3f___spec__2(ptr noundef %0, i64 noundef %3, ptr noundef %1)
  %5 = ptrtoint ptr %4 to i64
  %6 = and i64 %5, 1
  %.not.i8.i = icmp eq i64 %6, 0
  br i1 %.not.i8.i, label %lean_obj_tag.exit.thread.i, label %lean_obj_tag.exit.i

lean_obj_tag.exit.i:                              ; preds = %2
  %7 = and i64 %5, 8589934590
  %8 = icmp eq i64 %7, 0
  br i1 %8, label %11, label %l_Lean_Meta_Grind_CasesTypes_isSplit.exit

lean_obj_tag.exit.thread.i:                       ; preds = %2
  %9 = getelementptr i8, ptr %4, i64 4
  %.val.i.i = load i32, ptr %9, align 4
  %10 = icmp ult i32 %.val.i.i, 16777216
  br i1 %10, label %11, label %.thread.i

11:                                               ; preds = %lean_obj_tag.exit.thread.i, %lean_obj_tag.exit.i
  %12 = load ptr, ptr @l___private_Lean_Meta_Tactic_Grind_Cases_0__Lean_Meta_Grind_builtinEagerCases, align 8, !tbaa !9
  %13 = tail call zeroext i8 @l_Lean_NameSet_contains(ptr noundef %12, ptr noundef %1) #6
  %14 = zext i8 %13 to i64
  %15 = shl nuw nsw i64 %14, 1
  %16 = or disjoint i64 %15, 1
  br label %l_Lean_Meta_Grind_CasesTypes_isSplit.exit

.thread.i:                                        ; preds = %lean_obj_tag.exit.thread.i
  %17 = load i32, ptr %4, align 4, !tbaa !4
  %18 = icmp sgt i32 %17, 1
  br i1 %18, label %19, label %21, !prof !11

19:                                               ; preds = %.thread.i
  %20 = add nsw i32 %17, -1
  store i32 %20, ptr %4, align 4, !tbaa !4
  br label %l_Lean_Meta_Grind_CasesTypes_isSplit.exit

21:                                               ; preds = %.thread.i
  %.not.i.i = icmp eq i32 %17, 0
  br i1 %.not.i.i, label %l_Lean_Meta_Grind_CasesTypes_isSplit.exit, label %22

22:                                               ; preds = %21
  tail call void @lean_dec_ref_cold(ptr noundef nonnull %4) #6
  br label %l_Lean_Meta_Grind_CasesTypes_isSplit.exit

l_Lean_Meta_Grind_CasesTypes_isSplit.exit:        ; preds = %lean_obj_tag.exit.i, %11, %19, %21, %22
  %.0.i = phi i64 [ %16, %11 ], [ 3, %22 ], [ 3, %21 ], [ 3, %19 ], [ 3, %lean_obj_tag.exit.i ]
  %23 = ptrtoint ptr %1 to i64
  %24 = and i64 %23, 1
  %.not = icmp eq i64 %24, 0
  br i1 %.not, label %25, label %lean_dec.exit

25:                                               ; preds = %l_Lean_Meta_Grind_CasesTypes_isSplit.exit
  %26 = load i32, ptr %1, align 4, !tbaa !4
  %27 = icmp sgt i32 %26, 1
  br i1 %27, label %28, label %30, !prof !11

28:                                               ; preds = %25
  %29 = add nsw i32 %26, -1
  store i32 %29, ptr %1, align 4, !tbaa !4
  br label %lean_dec.exit

30:                                               ; preds = %25
  %.not.i = icmp eq i32 %26, 0
  br i1 %.not.i, label %lean_dec.exit, label %31

31:                                               ; preds = %30
  tail call void @lean_dec_ref_cold(ptr noundef nonnull %1) #6
  br label %lean_dec.exit

lean_dec.exit:                                    ; preds = %31, %30, %28, %l_Lean_Meta_Grind_CasesTypes_isSplit.exit
  %32 = inttoptr i64 %.0.i to ptr
  ret ptr %32
}